target datalayout = "e-m:e-p270:32:32-p271:32:32-p272:64:64-i64:64-i128:128-f80:128-n8:16:32:64-S128"
target triple = "x86_64-unknown-linux-gnu"

%"class.__gnu_cxx::__normal_iterator" = type { ptr }
%"class.ClipperLib::ClipperBase" = type { ptr, %"class.__gnu_cxx::__normal_iterator", %"class.std::vector.5", i8, %"class.std::vector.10", i8, i8, %"class.std::vector.15", ptr, %"class.std::priority_queue" }
%"class.std::vector.5" = type { %"struct.std::_Vector_base.6" }
%"struct.std::_Vector_base.6" = type { %"struct.std::_Vector_base<ClipperLib::LocalMinimum, std::allocator<ClipperLib::LocalMinimum>>::_Vector_impl" }
%"struct.std::_Vector_base<ClipperLib::LocalMinimum, std::allocator<ClipperLib::LocalMinimum>>::_Vector_impl" = type { %"struct.std::_Vector_base<ClipperLib::LocalMinimum, std::allocator<ClipperLib::LocalMinimum>>::_Vector_impl_data" }
%"struct.std::_Vector_base<ClipperLib::LocalMinimum, std::allocator<ClipperLib::LocalMinimum>>::_Vector_impl_data" = type { ptr, ptr, ptr }
%"class.std::vector.10" = type { %"struct.std::_Vector_base.11" }
%"struct.std::_Vector_base.11" = type { %"struct.std::_Vector_base<ClipperLib::TEdge *, std::allocator<ClipperLib::TEdge *>>::_Vector_impl" }
%"struct.std::_Vector_base<ClipperLib::TEdge *, std::allocator<ClipperLib::TEdge *>>::_Vector_impl" = type { %"struct.std::_Vector_base<ClipperLib::TEdge *, std::allocator<ClipperLib::TEdge *>>::_Vector_impl_data" }
%"struct.std::_Vector_base<ClipperLib::TEdge *, std::allocator<ClipperLib::TEdge *>>::_Vector_impl_data" = type { ptr, ptr, ptr }
%"class.std::vector.15" = type { %"struct.std::_Vector_base.16" }
%"struct.std::_Vector_base.16" = type { %"struct.std::_Vector_base<ClipperLib::OutRec *, std::allocator<ClipperLib::OutRec *>>::_Vector_impl" }
%"struct.std::_Vector_base<ClipperLib::OutRec *, std::allocator<ClipperLib::OutRec *>>::_Vector_impl" = type { %"struct.std::_Vector_base<ClipperLib::OutRec *, std::allocator<ClipperLib::OutRec *>>::_Vector_impl_data" }
%"struct.std::_Vector_base<ClipperLib::OutRec *, std::allocator<ClipperLib::OutRec *>>::_Vector_impl_data" = type { ptr, ptr, ptr }
%"class.std::priority_queue" = type <{ %"class.std::vector.20", %"struct.std::less", [7 x i8] }>
%"class.std::vector.20" = type { %"struct.std::_Vector_base.21" }
%"struct.std::_Vector_base.21" = type { %"struct.std::_Vector_base<long long, std::allocator<long long>>::_Vector_impl" }
%"struct.std::_Vector_base<long long, std::allocator<long long>>::_Vector_impl" = type { %"struct.std::_Vector_base<long long, std::allocator<long long>>::_Vector_impl_data" }
%"struct.std::_Vector_base<long long, std::allocator<long long>>::_Vector_impl_data" = type { ptr, ptr, ptr }
%"struct.std::less" = type { i8 }

; Function Attrs: mustprogress nounwind uwtable
define linkonce_odr hidden noundef nonnull align 8 dereferenceable(8) ptr @_ZNK9__gnu_cxx17__normal_iteratorIPN10ClipperLib12LocalMinimumESt6vectorIS2_SaIS2_EEE4baseEv(ptr noundef nonnull align 8 dereferenceable(8) %this) #1 comdat align 2 {
entry:
  %this.addr = alloca ptr, align 8
  store ptr %this, ptr %this.addr, align 8
  %this1 = load ptr, ptr %this.addr, align 8
  %_M_current = getelementptr inbounds %"class.__gnu_cxx::__normal_iterator", ptr %this1, i32 0, i32 0
  ret ptr %_M_current
}

; Function Attrs: mustprogress nounwind uwtable
define linkonce_odr hidden void @_ZN9__gnu_cxx17__normal_iteratorIPN10ClipperLib12LocalMinimumESt6vectorIS2_SaIS2_EEEC2ERKS3_(ptr noundef nonnull align 8 dereferenceable(8) %this, ptr noundef nonnull align 8 dereferenceable(8) %__i) unnamed_addr #1 comdat align 2 {
entry:
  %this.addr = alloca ptr, align 8
  %__i.addr = alloca ptr, align 8
  store ptr %this, ptr %this.addr, align 8
  store ptr %__i, ptr %__i.addr, align 8
  %this1 = load ptr, ptr %this.addr, align 8
  %_M_current = getelementptr inbounds %"class.__gnu_cxx::__normal_iterator", ptr %this1, i32 0, i32 0
  %0 = load ptr, ptr %__i.addr, align 8
  %1 = load ptr, ptr %0, align 8
  store ptr %1, ptr %_M_current, align 8
  ret void
}

; Function Attrs: mustprogress nounwind uwtable
define linkonce_odr hidden noundef zeroext i1 @_ZN9__gnu_cxxneIPN10ClipperLib12LocalMinimumESt6vectorIS2_SaIS2_EEEEbRKNS_17__normal_iteratorIT_T0_EESC_(ptr noundef nonnull align 8 dereferenceable(8) %__lhs, ptr noundef nonnull align 8 dereferenceable(8) %__rhs) #1 comdat {
entry:
  %__lhs.addr = alloca ptr, align 8
  %__rhs.addr = alloca ptr, align 8
  store ptr %__lhs, ptr %__lhs.addr, align 8
  store ptr %__rhs, ptr %__rhs.addr, align 8
  %0 = load ptr, ptr %__lhs.addr, align 8
  %call = call noundef nonnull align 8 dereferenceable(8) ptr @_ZNK9__gnu_cxx17__normal_iteratorIPN10ClipperLib12LocalMinimumESt6vectorIS2_SaIS2_EEE4baseEv(ptr noundef nonnull align 8 dereferenceable(8) %0) #13
  %1 = load ptr, ptr %call, align 8
  %2 = load ptr, ptr %__rhs.addr, align 8
  %call1 = call noundef nonnull align 8 dereferenceable(8) ptr @_ZNK9__gnu_cxx17__normal_iteratorIPN10ClipperLib12LocalMinimumESt6vectorIS2_SaIS2_EEE4baseEv(ptr noundef nonnull align 8 dereferenceable(8) %2) #13
  %3 = load ptr, ptr %call1, align 8
  %cmp = icmp ne ptr %1, %3
  ret i1 %cmp
}

; Function Attrs: mustprogress nounwind uwtable
define linkonce_odr hidden ptr @_ZNSt6vectorIN10ClipperLib12LocalMinimumESaIS1_EE3endEv(ptr noundef nonnull align 8 dereferenceable(24) %this) #1 comdat align 2 {
entry:
  %retval = alloca %"class.__gnu_cxx::__normal_iterator", align 8
  %this.addr = alloca ptr, align 8
  store ptr %this, ptr %this.addr, align 8
  %this1 = load ptr, ptr %this.addr, align 8
  %_M_impl = getelementptr inbounds %"struct.std::_Vector_base.6", ptr %this1, i32 0, i32 0
  %_M_finish = getelementptr inbounds %"struct.std::_Vector_base<ClipperLib::LocalMinimum, std::allocator<ClipperLib::LocalMinimum>>::_Vector_impl_data", ptr %_M_impl, i32 0, i32 1
  call void @_ZN9__gnu_cxx17__normal_iteratorIPN10ClipperLib12LocalMinimumESt6vectorIS2_SaIS2_EEEC2ERKS3_(ptr noundef nonnull align 8 dereferenceable(8) %retval, ptr noundef nonnull align 8 dereferenceable(8) %_M_finish) #13
  %coerce.dive = getelementptr inbounds %"class.__gnu_cxx::__normal_iterator", ptr %retval, i32 0, i32 0
  %0 = load ptr, ptr %coerce.dive, align 8
  ret ptr %0
}

; Function Attrs: mustprogress nounwind uwtable
define hidden noundef zeroext i1 @_ZN10ClipperLib11ClipperBase18LocalMinimaPendingEv(ptr noundef nonnull align 8 dereferenceable(144) %this) #1 align 2 {
entry:
  %this.addr = alloca ptr, align 8
  %ref.tmp = alloca %"class.__gnu_cxx::__normal_iterator", align 8
  store ptr %this, ptr %this.addr, align 8
  %this1 = load ptr, ptr %this.addr, align 8
  %m_CurrentLM = getelementptr inbounds %"class.ClipperLib::ClipperBase", ptr %this1, i32 0, i32 1
  %m_MinimaList = getelementptr inbounds %"class.ClipperLib::ClipperBase", ptr %this1, i32 0, i32 2
  %call = call ptr @_ZNSt6vectorIN10ClipperLib12LocalMinimumESaIS1_EE3endEv(ptr noundef nonnull align 8 dereferenceable(24) %m_MinimaList) #13
  %coerce.dive = getelementptr inbounds %"class.__gnu_cxx::__normal_iterator", ptr %ref.tmp, i32 0, i32 0
  store ptr %call, ptr %coerce.dive, align 8
  %call2 = call noundef zeroext i1 @_ZN9__gnu_cxxneIPN10ClipperLib12LocalMinimumESt6vectorIS2_SaIS2_EEEEbRKNS_17__normal_iteratorIT_T0_EESC_(ptr noundef nonnull align 8 dereferenceable(8) %m_CurrentLM, ptr noundef nonnull align 8 dereferenceable(8) %ref.tmp) #13
  ret i1 %call2
}