; Function Attrs: mustprogress nofree norecurse nosync nounwind willreturn memory(argmem: read) uwtable
define hidden noundef zeroext i1 @_ZN10ClipperLib11ClipperBase18LocalMinimaPendingEv(ptr nocapture noundef nonnull readonly align 8 dereferenceable(144) %this) local_unnamed_addr #3 align 2 {
entry:
  %m_CurrentLM = getelementptr inbounds i8, ptr %this, i64 8
  %_M_finish.i = getelementptr inbounds i8, ptr %this, i64 24
  %0 = load ptr, ptr %_M_finish.i, align 8
  %1 = load ptr, ptr %m_CurrentLM, align 8
  %cmp.i = icmp ne ptr %1, %0
  ret i1 %cmp.i
}